; Function Attrs: mustprogress nounwind uwtable
define dso_local noundef i32 @_ZN4llvm10VNCoercion30analyzeLoadFromClobberingStoreEPNS_4TypeEPNS_5ValueEPNS_9StoreInstERKNS_10DataLayoutE(ptr noundef %0, ptr noundef %1, ptr noundef readonly captures(none) %2, ptr noundef nonnull align 8 dereferenceable(512) %3) local_unnamed_addr #0 {
  %5 = getelementptr inbounds i8, ptr %2, i64 -64
  %6 = load ptr, ptr %5, align 8
  %7 = getelementptr inbounds nuw i8, ptr %6, i64 8
  %8 = load ptr, ptr %7, align 8
  %9 = getelementptr inbounds nuw i8, ptr %8, i64 8
  %10 = load i32, ptr %9, align 8
  %trunc.i = trunc i32 %10 to i8
  switch i8 %trunc.i, label %_ZN4llvm10VNCoercionL35isFirstClassAggregateOrScalableTypeEPNS_4TypeE.exit [
    i8 15, label %_ZN4llvm10VNCoercionL35isFirstClassAggregateOrScalableTypeEPNS_4TypeE.exit.thread
    i8 16, label %_ZN4llvm10VNCoercionL35isFirstClassAggregateOrScalableTypeEPNS_4TypeE.exit.thread
    i8 18, label %_ZN4llvm10VNCoercionL35isFirstClassAggregateOrScalableTypeEPNS_4TypeE.exit.thread
  ]

_ZN4llvm10VNCoercionL35isFirstClassAggregateOrScalableTypeEPNS_4TypeE.exit: ; preds = %4
  %11 = tail call noundef zeroext i1 @_ZN4llvm10VNCoercion31canCoerceMustAliasedValueToLoadEPNS_5ValueEPNS_4TypeERKNS_10DataLayoutE(ptr noundef nonnull %6, ptr noundef %0, ptr noundef nonnull align 8 dereferenceable(512) %3)
  br i1 %11, label %12, label %_ZN4llvm10VNCoercionL35isFirstClassAggregateOrScalableTypeEPNS_4TypeE.exit.thread

12:                                               ; preds = %_ZN4llvm10VNCoercionL35isFirstClassAggregateOrScalableTypeEPNS_4TypeE.exit
  %13 = getelementptr inbounds i8, ptr %2, i64 -32
  %14 = load ptr, ptr %13, align 8
  %15 = load ptr, ptr %5, align 8
  %16 = getelementptr inbounds nuw i8, ptr %15, i64 8
  %17 = load ptr, ptr %16, align 8
  %18 = tail call { i64, i8 } @_ZNK4llvm10DataLayout17getTypeSizeInBitsEPNS_4TypeE(ptr noundef nonnull align 8 dereferenceable(512) %3, ptr noundef %17)
  %.fca.0.extract = extractvalue { i64, i8 } %18, 0
  %19 = tail call fastcc noundef i32 @_ZN4llvm10VNCoercionL30analyzeLoadFromClobberingWriteEPNS_4TypeEPNS_5ValueES4_mRKNS_10DataLayoutE(ptr noundef %0, ptr noundef %1, ptr noundef %14, i64 noundef %.fca.0.extract, ptr noundef nonnull align 8 dereferenceable(512) %3)
  br label %_ZN4llvm10VNCoercionL35isFirstClassAggregateOrScalableTypeEPNS_4TypeE.exit.thread

_ZN4llvm10VNCoercionL35isFirstClassAggregateOrScalableTypeEPNS_4TypeE.exit.thread: ; preds = %4, %4, %4, %_ZN4llvm10VNCoercionL35isFirstClassAggregateOrScalableTypeEPNS_4TypeE.exit, %12
  %.0 = phi i32 [ %19, %12 ], [ -1, %_ZN4llvm10VNCoercionL35isFirstClassAggregateOrScalableTypeEPNS_4TypeE.exit ], [ -1, %4 ], [ -1, %4 ], [ -1, %4 ]
  ret i32 %.0
}